; ModuleID = '57/2966.c'
source_filename = "57/2966.c"
target datalayout = "e-m:e-p270:32:32-p271:32:32-p272:64:64-i64:64-f80:128-n8:16:32:64-S128"
target triple = "x86_64-pc-linux-gnu"

@.str = private unnamed_addr constant [3 x i8] c"%d\00", align 1
@.str.1 = private unnamed_addr constant [3 x i8] c"%s\00", align 1
@.str.2 = private unnamed_addr constant [4 x i8] c"%s\0A\00", align 1

; Function Attrs: noinline nounwind uwtable
define dso_local i32 @main() #0 {
  %1 = alloca i32, align 4
  %2 = alloca i32, align 4
  %3 = alloca i8*, align 8
  %4 = alloca i64, align 8
  %5 = alloca i64, align 8
  %6 = alloca i32, align 4
  %7 = alloca i32, align 4
  store i32 0, i32* %1, align 4
  %8 = call i32 (i8*, ...) @__isoc99_scanf(i8* getelementptr inbounds ([3 x i8], [3 x i8]* @.str, i64 0, i64 0), i32* %2)
  %9 = load i32, i32* %2, align 4
  %10 = zext i32 %9 to i64
  %11 = call i8* @llvm.stacksave()
  store i8* %11, i8** %3, align 8
  %12 = alloca [40 x i8], i64 %10, align 16
  store i64 %10, i64* %4, align 8
  %13 = load i32, i32* %2, align 4
  %14 = zext i32 %13 to i64
  %15 = alloca [40 x i8], i64 %14, align 16
  store i64 %14, i64* %5, align 8
  store i32 0, i32* %6, align 4
  br label %16

16:                                               ; preds = %26, %0
  %17 = load i32, i32* %6, align 4
  %18 = load i32, i32* %2, align 4
  %19 = icmp slt i32 %17, %18
  br i1 %19, label %20, label %29

20:                                               ; preds = %16
  %21 = load i32, i32* %6, align 4
  %22 = sext i32 %21 to i64
  %23 = getelementptr inbounds [40 x i8], [40 x i8]* %12, i64 %22
  %24 = getelementptr inbounds [40 x i8], [40 x i8]* %23, i64 0, i64 0
  %25 = call i32 (i8*, ...) @__isoc99_scanf(i8* getelementptr inbounds ([3 x i8], [3 x i8]* @.str.1, i64 0, i64 0), i8* %24)
  br label %26

26:                                               ; preds = %20
  %27 = load i32, i32* %6, align 4
  %28 = add nsw i32 %27, 1
  store i32 %28, i32* %6, align 4
  br label %16

29:                                               ; preds = %16
  store i32 0, i32* %6, align 4
  br label %30

30:                                               ; preds = %193, %29
  %31 = load i32, i32* %6, align 4
  %32 = load i32, i32* %2, align 4
  %33 = icmp slt i32 %31, %32
  br i1 %33, label %34, label %196

34:                                               ; preds = %30
  %35 = load i32, i32* %6, align 4
  %36 = sext i32 %35 to i64
  %37 = getelementptr inbounds [40 x i8], [40 x i8]* %15, i64 %36
  %38 = getelementptr inbounds [40 x i8], [40 x i8]* %37, i64 0, i64 0
  %39 = load i32, i32* %6, align 4
  %40 = sext i32 %39 to i64
  %41 = getelementptr inbounds [40 x i8], [40 x i8]* %12, i64 %40
  %42 = getelementptr inbounds [40 x i8], [40 x i8]* %41, i64 0, i64 0
  %43 = call i8* @strcpy(i8* %38, i8* %42) #2
  store i32 0, i32* %7, align 4
  br label %44

44:                                               ; preds = %184, %34
  %45 = load i32, i32* %7, align 4
  %46 = sext i32 %45 to i64
  %47 = load i32, i32* %6, align 4
  %48 = sext i32 %47 to i64
  %49 = getelementptr inbounds [40 x i8], [40 x i8]* %12, i64 %48
  %50 = getelementptr inbounds [40 x i8], [40 x i8]* %49, i64 0, i64 0
  %51 = call i64 @strlen(i8* %50) #5
  %52 = icmp ult i64 %46, %51
  br i1 %52, label %53, label %187

53:                                               ; preds = %44
  %54 = load i32, i32* %6, align 4
  %55 = sext i32 %54 to i64
  %56 = getelementptr inbounds [40 x i8], [40 x i8]* %12, i64 %55
  %57 = load i32, i32* %7, align 4
  %58 = sext i32 %57 to i64
  %59 = getelementptr inbounds [40 x i8], [40 x i8]* %56, i64 0, i64 %58
  %60 = load i8, i8* %59, align 1
  %61 = sext i8 %60 to i32
  %62 = icmp eq i32 %61, 105
  br i1 %62, label %63, label %103

63:                                               ; preds = %53
  %64 = load i32, i32* %6, align 4
  %65 = sext i32 %64 to i64
  %66 = getelementptr inbounds [40 x i8], [40 x i8]* %12, i64 %65
  %67 = load i32, i32* %7, align 4
  %68 = add nsw i32 %67, 1
  %69 = sext i32 %68 to i64
  %70 = getelementptr inbounds [40 x i8], [40 x i8]* %66, i64 0, i64 %69
  %71 = load i8, i8* %70, align 1
  %72 = sext i8 %71 to i32
  %73 = icmp eq i32 %72, 110
  br i1 %73, label %74, label %103

74:                                               ; preds = %63
  %75 = load i32, i32* %6, align 4
  %76 = sext i32 %75 to i64
  %77 = getelementptr inbounds [40 x i8], [40 x i8]* %12, i64 %76
  %78 = load i32, i32* %7, align 4
  %79 = add nsw i32 %78, 2
  %80 = sext i32 %79 to i64
  %81 = getelementptr inbounds [40 x i8], [40 x i8]* %77, i64 0, i64 %80
  %82 = load i8, i8* %81, align 1
  %83 = sext i8 %82 to i32
  %84 = icmp eq i32 %83, 103
  br i1 %84, label %85, label %103

85:                                               ; preds = %74
  %86 = load i32, i32* %6, align 4
  %87 = sext i32 %86 to i64
  %88 = getelementptr inbounds [40 x i8], [40 x i8]* %12, i64 %87
  %89 = load i32, i32* %7, align 4
  %90 = add nsw i32 %89, 3
  %91 = sext i32 %90 to i64
  %92 = getelementptr inbounds [40 x i8], [40 x i8]* %88, i64 0, i64 %91
  %93 = load i8, i8* %92, align 1
  %94 = sext i8 %93 to i32
  %95 = icmp eq i32 %94, 0
  br i1 %95, label %96, label %103

96:                                               ; preds = %85
  %97 = load i32, i32* %6, align 4
  %98 = sext i32 %97 to i64
  %99 = getelementptr inbounds [40 x i8], [40 x i8]* %15, i64 %98
  %100 = load i32, i32* %7, align 4
  %101 = sext i32 %100 to i64
  %102 = getelementptr inbounds [40 x i8], [40 x i8]* %99, i64 0, i64 %101
  store i8 0, i8* %102, align 1
  br label %183

103:                                              ; preds = %85, %74, %63, %53
  %104 = load i32, i32* %6, align 4
  %105 = sext i32 %104 to i64
  %106 = getelementptr inbounds [40 x i8], [40 x i8]* %12, i64 %105
  %107 = load i32, i32* %7, align 4
  %108 = sext i32 %107 to i64
  %109 = getelementptr inbounds [40 x i8], [40 x i8]* %106, i64 0, i64 %108
  %110 = load i8, i8* %109, align 1
  %111 = sext i8 %110 to i32
  %112 = icmp eq i32 %111, 101
  br i1 %112, label %113, label %142

113:                                              ; preds = %103
  %114 = load i32, i32* %6, align 4
  %115 = sext i32 %114 to i64
  %116 = getelementptr inbounds [40 x i8], [40 x i8]* %12, i64 %115
  %117 = load i32, i32* %7, align 4
  %118 = add nsw i32 %117, 1
  %119 = sext i32 %118 to i64
  %120 = getelementptr inbounds [40 x i8], [40 x i8]* %116, i64 0, i64 %119
  %121 = load i8, i8* %120, align 1
  %122 = sext i8 %121 to i32
  %123 = icmp eq i32 %122, 114
  br i1 %123, label %124, label %142

124:                                              ; preds = %113
  %125 = load i32, i32* %6, align 4
  %126 = sext i32 %125 to i64
  %127 = getelementptr inbounds [40 x i8], [40 x i8]* %12, i64 %126
  %128 = load i32, i32* %7, align 4
  %129 = add nsw i32 %128, 2
  %130 = sext i32 %129 to i64
  %131 = getelementptr inbounds [40 x i8], [40 x i8]* %127, i64 0, i64 %130
  %132 = load i8, i8* %131, align 1
  %133 = sext i8 %132 to i32
  %134 = icmp eq i32 %133, 0
  br i1 %134, label %135, label %142

135:                                              ; preds = %124
  %136 = load i32, i32* %6, align 4
  %137 = sext i32 %136 to i64
  %138 = getelementptr inbounds [40 x i8], [40 x i8]* %15, i64 %137
  %139 = load i32, i32* %7, align 4
  %140 = sext i32 %139 to i64
  %141 = getelementptr inbounds [40 x i8], [40 x i8]* %138, i64 0, i64 %140
  store i8 0, i8* %141, align 1
  br label %182

142:                                              ; preds = %124, %113, %103
  %143 = load i32, i32* %6, align 4
  %144 = sext i32 %143 to i64
  %145 = getelementptr inbounds [40 x i8], [40 x i8]* %12, i64 %144
  %146 = load i32, i32* %7, align 4
  %147 = sext i32 %146 to i64
  %148 = getelementptr inbounds [40 x i8], [40 x i8]* %145, i64 0, i64 %147
  %149 = load i8, i8* %148, align 1
  %150 = sext i8 %149 to i32
  %151 = icmp eq i32 %150, 108
  br i1 %151, label %152, label %181

152:                                              ; preds = %142
  %153 = load i32, i32* %6, align 4
  %154 = sext i32 %153 to i64
  %155 = getelementptr inbounds [40 x i8], [40 x i8]* %12, i64 %154
  %156 = load i32, i32* %7, align 4
  %157 = add nsw i32 %156, 1
  %158 = sext i32 %157 to i64
  %159 = getelementptr inbounds [40 x i8], [40 x i8]* %155, i64 0, i64 %158
  %160 = load i8, i8* %159, align 1
  %161 = sext i8 %160 to i32
  %162 = icmp eq i32 %161, 121
  br i1 %162, label %163, label %181

163:                                              ; preds = %152
  %164 = load i32, i32* %6, align 4
  %165 = sext i32 %164 to i64
  %166 = getelementptr inbounds [40 x i8], [40 x i8]* %12, i64 %165
  %167 = load i32, i32* %7, align 4
  %168 = add nsw i32 %167, 2
  %169 = sext i32 %168 to i64
  %170 = getelementptr inbounds [40 x i8], [40 x i8]* %166, i64 0, i64 %169
  %171 = load i8, i8* %170, align 1
  %172 = sext i8 %171 to i32
  %173 = icmp eq i32 %172, 0
  br i1 %173, label %174, label %181

174:                                              ; preds = %163
  %175 = load i32, i32* %6, align 4
  %176 = sext i32 %175 to i64
  %177 = getelementptr inbounds [40 x i8], [40 x i8]* %15, i64 %176
  %178 = load i32, i32* %7, align 4
  %179 = sext i32 %178 to i64
  %180 = getelementptr inbounds [40 x i8], [40 x i8]* %177, i64 0, i64 %179
  store i8 0, i8* %180, align 1
  br label %181

181:                                              ; preds = %174, %163, %152, %142
  br label %182

182:                                              ; preds = %181, %135
  br label %183

183:                                              ; preds = %182, %96
  br label %184

184:                                              ; preds = %183
  %185 = load i32, i32* %7, align 4
  %186 = add nsw i32 %185, 1
  store i32 %186, i32* %7, align 4
  br label %44

187:                                              ; preds = %44
  %188 = load i32, i32* %6, align 4
  %189 = sext i32 %188 to i64
  %190 = getelementptr inbounds [40 x i8], [40 x i8]* %15, i64 %189
  %191 = getelementptr inbounds [40 x i8], [40 x i8]* %190, i64 0, i64 0
  %192 = call i32 (i8*, ...) @printf(i8* getelementptr inbounds ([4 x i8], [4 x i8]* @.str.2, i64 0, i64 0), i8* %191)
  br label %193

193:                                              ; preds = %187
  %194 = load i32, i32* %6, align 4
  %195 = add nsw i32 %194, 1
  store i32 %195, i32* %6, align 4
  br label %30

196:                                              ; preds = %30
  store i32 0, i32* %1, align 4
  %197 = load i8*, i8** %3, align 8
  call void @llvm.stackrestore(i8* %197)
  %198 = load i32, i32* %1, align 4
  ret i32 %198
}

declare dso_local i32 @__isoc99_scanf(i8*, ...) #1

; Function Attrs: nounwind
declare i8* @llvm.stacksave() #2

; Function Attrs: nounwind
declare dso_local i8* @strcpy(i8*, i8*) #3

; Function Attrs: nounwind readonly
declare dso_local i64 @strlen(i8*) #4

declare dso_local i32 @printf(i8*, ...) #1

; Function Attrs: nounwind
declare void @llvm.stackrestore(i8*) #2


!llvm.module.flags = !{!0}
!llvm.ident = !{!1}

!0 = !{i32 1, !"wchar_size", i32 4}
!1 = !{!"clang version 10.0.0-4ubuntu1 "}
